; Function Attrs: nofree norecurse nosync nounwind memory(readwrite, inaccessiblemem: none) uwtable
define internal void @Blit_XRGB8888_RGB555(ptr noundef readonly captures(none) %0) #3 {
  %2 = getelementptr inbounds nuw i8, ptr %0, i64 52
  %3 = load i32, ptr %2, align 4
  %.not48 = icmp eq i32 %3, 0
  br i1 %.not48, label %._crit_edge, label %.lr.ph

.lr.ph:                                           ; preds = %1
  %4 = getelementptr inbounds nuw i8, ptr %0, i64 60
  %5 = load i32, ptr %4, align 4
  %6 = sdiv i32 %5, 2
  %7 = getelementptr inbounds nuw i8, ptr %0, i64 40
  %8 = load ptr, ptr %7, align 8
  %9 = getelementptr inbounds nuw i8, ptr %0, i64 28
  %10 = load i32, ptr %9, align 4
  %11 = sdiv i32 %10, 4
  %12 = getelementptr inbounds nuw i8, ptr %0, i64 8
  %13 = load ptr, ptr %12, align 8
  %14 = getelementptr inbounds nuw i8, ptr %0, i64 48
  %15 = load i32, ptr %14, align 8
  %16 = add nsw i32 %15, 3
  %17 = sdiv i32 %16, 4
  %18 = and i32 %15, 3
  %19 = sext i32 %11 to i64
  %20 = sext i32 %6 to i64
  br label %21

21:                                               ; preds = %.lr.ph, %77
  %.in = phi i32 [ %3, %.lr.ph ], [ %22, %77 ]
  %.03850 = phi ptr [ %13, %.lr.ph ], [ %78, %77 ]
  %.04249 = phi ptr [ %8, %.lr.ph ], [ %79, %77 ]
  %22 = add nsw i32 %.in, -1
  switch i32 %18, label %default.unreachable51 [
    i32 0, label %23
    i32 3, label %36
    i32 2, label %49
    i32 1, label %62
  ]

23:                                               ; preds = %21, %62
  %.446 = phi ptr [ %74, %62 ], [ %.04249, %21 ]
  %.4 = phi ptr [ %73, %62 ], [ %.03850, %21 ]
  %.3 = phi i32 [ %75, %62 ], [ %17, %21 ]
  %24 = load i32, ptr %.4, align 4
  %25 = lshr i32 %24, 9
  %26 = and i32 %25, 31744
  %27 = lshr i32 %24, 6
  %28 = and i32 %27, 992
  %29 = or disjoint i32 %26, %28
  %30 = lshr i32 %24, 3
  %31 = and i32 %30, 31
  %32 = or disjoint i32 %29, %31
  %33 = trunc nuw nsw i32 %32 to i16
  store i16 %33, ptr %.446, align 2
  %34 = getelementptr inbounds nuw i8, ptr %.4, i64 4
  %35 = getelementptr inbounds nuw i8, ptr %.446, i64 2
  br label %36

36:                                               ; preds = %23, %21
  %.143 = phi ptr [ %35, %23 ], [ %.04249, %21 ]
  %.139 = phi ptr [ %34, %23 ], [ %.03850, %21 ]
  %.0 = phi i32 [ %.3, %23 ], [ %17, %21 ]
  %37 = load i32, ptr %.139, align 4
  %38 = lshr i32 %37, 9
  %39 = and i32 %38, 31744
  %40 = lshr i32 %37, 6
  %41 = and i32 %40, 992
  %42 = or disjoint i32 %39, %41
  %43 = lshr i32 %37, 3
  %44 = and i32 %43, 31
  %45 = or disjoint i32 %42, %44
  %46 = trunc nuw nsw i32 %45 to i16
  store i16 %46, ptr %.143, align 2
  %47 = getelementptr inbounds nuw i8, ptr %.139, i64 4
  %48 = getelementptr inbounds nuw i8, ptr %.143, i64 2
  br label %49

49:                                               ; preds = %36, %21
  %.244 = phi ptr [ %48, %36 ], [ %.04249, %21 ]
  %.240 = phi ptr [ %47, %36 ], [ %.03850, %21 ]
  %.1 = phi i32 [ %.0, %36 ], [ %17, %21 ]
  %50 = load i32, ptr %.240, align 4
  %51 = lshr i32 %50, 9
  %52 = and i32 %51, 31744
  %53 = lshr i32 %50, 6
  %54 = and i32 %53, 992
  %55 = or disjoint i32 %52, %54
  %56 = lshr i32 %50, 3
  %57 = and i32 %56, 31
  %58 = or disjoint i32 %55, %57
  %59 = trunc nuw nsw i32 %58 to i16
  store i16 %59, ptr %.244, align 2
  %60 = getelementptr inbounds nuw i8, ptr %.240, i64 4
  %61 = getelementptr inbounds nuw i8, ptr %.244, i64 2
  br label %62

62:                                               ; preds = %49, %21
  %.345 = phi ptr [ %.04249, %21 ], [ %61, %49 ]
  %.341 = phi ptr [ %.03850, %21 ], [ %60, %49 ]
  %.2 = phi i32 [ %17, %21 ], [ %.1, %49 ]
  %63 = load i32, ptr %.341, align 4
  %64 = lshr i32 %63, 9
  %65 = and i32 %64, 31744
  %66 = lshr i32 %63, 6
  %67 = and i32 %66, 992
  %68 = or disjoint i32 %65, %67
  %69 = lshr i32 %63, 3
  %70 = and i32 %69, 31
  %71 = or disjoint i32 %68, %70
  %72 = trunc nuw nsw i32 %71 to i16
  store i16 %72, ptr %.345, align 2
  %73 = getelementptr inbounds nuw i8, ptr %.341, i64 4
  %74 = getelementptr inbounds nuw i8, ptr %.345, i64 2
  %75 = add nsw i32 %.2, -1
  %76 = icmp sgt i32 %.2, 1
  br i1 %76, label %23, label %77, !llvm.loop !63

default.unreachable51:                            ; preds = %21
  unreachable

77:                                               ; preds = %62
  %78 = getelementptr inbounds i32, ptr %73, i64 %19
  %79 = getelementptr inbounds i16, ptr %74, i64 %20
  %.not = icmp eq i32 %22, 0
  br i1 %.not, label %._crit_edge, label %21, !llvm.loop !64

._crit_edge:                                      ; preds = %77, %1
  ret void
}